target datalayout = "e-m:e-p270:32:32-p271:32:32-p272:64:64-i64:64-i128:128-f80:128-n8:16:32:64-S128"
target triple = "x86_64-pc-linux-gnu"

; Function Attrs: nounwind uwtable
define i32 @ossl_rsa_check_pminusq_diff(ptr noundef %0, ptr noundef %1, ptr noundef %2, i32 noundef %3) #0 {
  %5 = alloca i32, align 4
  %6 = alloca ptr, align 8
  %7 = alloca ptr, align 8
  %8 = alloca ptr, align 8
  %9 = alloca i32, align 4
  %10 = alloca i32, align 4
  %11 = alloca i32, align 4
  store ptr %0, ptr %6, align 8, !tbaa !12
  store ptr %1, ptr %7, align 8, !tbaa !12
  store ptr %2, ptr %8, align 8, !tbaa !12
  store i32 %3, ptr %9, align 4, !tbaa !10
  call void @llvm.lifetime.start.p0(i64 4, ptr %10) #3
  %12 = load i32, ptr %9, align 4, !tbaa !10
  %13 = ashr i32 %12, 1
  %14 = sub nsw i32 %13, 100
  store i32 %14, ptr %10, align 4, !tbaa !10
  %15 = load ptr, ptr %6, align 8, !tbaa !12
  %16 = load ptr, ptr %7, align 8, !tbaa !12
  %17 = load ptr, ptr %8, align 8, !tbaa !12
  %18 = call i32 @BN_sub(ptr noundef %15, ptr noundef %16, ptr noundef %17)
  %19 = icmp ne i32 %18, 0
  br i1 %19, label %21, label %20

20:                                               ; preds = %4
  store i32 -1, ptr %5, align 4
  store i32 1, ptr %11, align 4
  br label %38

21:                                               ; preds = %4
  %22 = load ptr, ptr %6, align 8, !tbaa !12
  call void @BN_set_negative(ptr noundef %22, i32 noundef 0)
  %23 = load ptr, ptr %6, align 8, !tbaa !12
  %24 = call i32 @BN_is_zero(ptr noundef %23)
  %25 = icmp ne i32 %24, 0
  br i1 %25, label %26, label %27

26:                                               ; preds = %21
  store i32 0, ptr %5, align 4
  store i32 1, ptr %11, align 4
  br label %38

27:                                               ; preds = %21
  %28 = load ptr, ptr %6, align 8, !tbaa !12
  %29 = call i32 @BN_sub_word(ptr noundef %28, i64 noundef 1)
  %30 = icmp ne i32 %29, 0
  br i1 %30, label %32, label %31

31:                                               ; preds = %27
  store i32 -1, ptr %5, align 4
  store i32 1, ptr %11, align 4
  br label %38

32:                                               ; preds = %27
  %33 = load ptr, ptr %6, align 8, !tbaa !12
  %34 = call i32 @BN_num_bits(ptr noundef %33)
  %35 = load i32, ptr %10, align 4, !tbaa !10
  %36 = icmp sgt i32 %34, %35
  %37 = zext i1 %36 to i32
  store i32 %37, ptr %5, align 4
  store i32 1, ptr %11, align 4
  br label %38

38:                                               ; preds = %32, %31, %26, %20
  call void @llvm.lifetime.end.p0(i64 4, ptr %10) #3
  %39 = load i32, ptr %5, align 4
  ret i32 %39
}