; Function Attrs: nounwind uwtable
define range(i32 -1, 2) i32 @ossl_rsa_check_pminusq_diff(ptr noundef %0, ptr noundef %1, ptr noundef %2, i32 noundef %3) local_unnamed_addr #0 {
  %5 = ashr i32 %3, 1
  %6 = add nsw i32 %5, -100
  %7 = tail call i32 @BN_sub(ptr noundef %0, ptr noundef %1, ptr noundef %2) #3
  %.not = icmp eq i32 %7, 0
  br i1 %.not, label %16, label %8

8:                                                ; preds = %4
  tail call void @BN_set_negative(ptr noundef %0, i32 noundef 0) #3
  %9 = tail call i32 @BN_is_zero(ptr noundef %0) #3
  %.not9 = icmp eq i32 %9, 0
  br i1 %.not9, label %10, label %16

10:                                               ; preds = %8
  %11 = tail call i32 @BN_sub_word(ptr noundef %0, i64 noundef 1) #3
  %.not10 = icmp eq i32 %11, 0
  br i1 %.not10, label %16, label %12

12:                                               ; preds = %10
  %13 = tail call i32 @BN_num_bits(ptr noundef %0) #3
  %14 = icmp sgt i32 %13, %6
  %15 = zext i1 %14 to i32
  br label %16

16:                                               ; preds = %10, %8, %4, %12
  %.0 = phi i32 [ %15, %12 ], [ -1, %4 ], [ 0, %8 ], [ -1, %10 ]
  ret i32 %.0
}